target datalayout = "e-m:e-p270:32:32-p271:32:32-p272:64:64-i64:64-i128:128-f80:128-n8:16:32:64-S128"
target triple = "x86_64-pc-linux-gnu"

%struct.ossl_store_info_st = type { i32, %union.anon.3 }
%union.anon.3 = type { %struct.anon.4 }
%struct.anon.4 = type { ptr, ptr }

@.str.2 = private unnamed_addr constant [36 x i8] c"../openssl/crypto/store/store_lib.c\00", align 1

; Function Attrs: nounwind uwtable
define void @OSSL_STORE_INFO_free(ptr noundef %0) #0 {
  %2 = alloca ptr, align 8
  store ptr %0, ptr %2, align 8, !tbaa !77
  %3 = load ptr, ptr %2, align 8, !tbaa !77
  %4 = icmp ne ptr %3, null
  br i1 %4, label %5, label %40

5:                                                ; preds = %1
  %6 = load ptr, ptr %2, align 8, !tbaa !77
  %7 = getelementptr inbounds nuw %struct.ossl_store_info_st, ptr %6, i32 0, i32 0
  %8 = load i32, ptr %7, align 8, !tbaa !88
  switch i32 %8, label %38 [
    i32 1, label %9
    i32 2, label %18
    i32 3, label %22
    i32 4, label %26
    i32 5, label %30
    i32 6, label %34
  ]

9:                                                ; preds = %5
  %10 = load ptr, ptr %2, align 8, !tbaa !77
  %11 = getelementptr inbounds nuw %struct.ossl_store_info_st, ptr %10, i32 0, i32 1
  %12 = getelementptr inbounds nuw %struct.anon.4, ptr %11, i32 0, i32 0
  %13 = load ptr, ptr %12, align 8, !tbaa !25
  call void @CRYPTO_free(ptr noundef %13, ptr noundef @.str.2, i32 noundef 828)
  %14 = load ptr, ptr %2, align 8, !tbaa !77
  %15 = getelementptr inbounds nuw %struct.ossl_store_info_st, ptr %14, i32 0, i32 1
  %16 = getelementptr inbounds nuw %struct.anon.4, ptr %15, i32 0, i32 1
  %17 = load ptr, ptr %16, align 8, !tbaa !25
  call void @CRYPTO_free(ptr noundef %17, ptr noundef @.str.2, i32 noundef 829)
  br label %38

18:                                               ; preds = %5
  %19 = load ptr, ptr %2, align 8, !tbaa !77
  %20 = getelementptr inbounds nuw %struct.ossl_store_info_st, ptr %19, i32 0, i32 1
  %21 = load ptr, ptr %20, align 8, !tbaa !25
  call void @EVP_PKEY_free(ptr noundef %21)
  br label %38

22:                                               ; preds = %5
  %23 = load ptr, ptr %2, align 8, !tbaa !77
  %24 = getelementptr inbounds nuw %struct.ossl_store_info_st, ptr %23, i32 0, i32 1
  %25 = load ptr, ptr %24, align 8, !tbaa !25
  call void @EVP_PKEY_free(ptr noundef %25)
  br label %38

26:                                               ; preds = %5
  %27 = load ptr, ptr %2, align 8, !tbaa !77
  %28 = getelementptr inbounds nuw %struct.ossl_store_info_st, ptr %27, i32 0, i32 1
  %29 = load ptr, ptr %28, align 8, !tbaa !25
  call void @EVP_PKEY_free(ptr noundef %29)
  br label %38

30:                                               ; preds = %5
  %31 = load ptr, ptr %2, align 8, !tbaa !77
  %32 = getelementptr inbounds nuw %struct.ossl_store_info_st, ptr %31, i32 0, i32 1
  %33 = load ptr, ptr %32, align 8, !tbaa !25
  call void @X509_free(ptr noundef %33)
  br label %38

34:                                               ; preds = %5
  %35 = load ptr, ptr %2, align 8, !tbaa !77
  %36 = getelementptr inbounds nuw %struct.ossl_store_info_st, ptr %35, i32 0, i32 1
  %37 = load ptr, ptr %36, align 8, !tbaa !25
  call void @X509_CRL_free(ptr noundef %37)
  br label %38

38:                                               ; preds = %5, %34, %30, %26, %22, %18, %9
  %39 = load ptr, ptr %2, align 8, !tbaa !77
  call void @CRYPTO_free(ptr noundef %39, ptr noundef @.str.2, i32 noundef 847)
  br label %40

40:                                               ; preds = %38, %1
  ret void
}