; Function Attrs: nounwind uwtable
define void @OSSL_STORE_INFO_free(ptr noundef %0) #0 {
  %.not = icmp eq ptr %0, null
  br i1 %.not, label %25, label %2

2:                                                ; preds = %1
  %3 = load i32, ptr %0, align 8, !tbaa !68
  switch i32 %3, label %24 [
    i32 1, label %4
    i32 2, label %9
    i32 3, label %12
    i32 4, label %15
    i32 5, label %18
    i32 6, label %21
  ]

4:                                                ; preds = %2
  %5 = getelementptr inbounds nuw i8, ptr %0, i64 8
  %6 = load ptr, ptr %5, align 8, !tbaa !8
  tail call void @CRYPTO_free(ptr noundef %6, ptr noundef nonnull @.str.2, i32 noundef 828) #9
  %7 = getelementptr inbounds nuw i8, ptr %0, i64 16
  %8 = load ptr, ptr %7, align 8, !tbaa !8
  tail call void @CRYPTO_free(ptr noundef %8, ptr noundef nonnull @.str.2, i32 noundef 829) #9
  br label %24

9:                                                ; preds = %2
  %10 = getelementptr inbounds nuw i8, ptr %0, i64 8
  %11 = load ptr, ptr %10, align 8, !tbaa !8
  tail call void @EVP_PKEY_free(ptr noundef %11) #9
  br label %24

12:                                               ; preds = %2
  %13 = getelementptr inbounds nuw i8, ptr %0, i64 8
  %14 = load ptr, ptr %13, align 8, !tbaa !8
  tail call void @EVP_PKEY_free(ptr noundef %14) #9
  br label %24

15:                                               ; preds = %2
  %16 = getelementptr inbounds nuw i8, ptr %0, i64 8
  %17 = load ptr, ptr %16, align 8, !tbaa !8
  tail call void @EVP_PKEY_free(ptr noundef %17) #9
  br label %24

18:                                               ; preds = %2
  %19 = getelementptr inbounds nuw i8, ptr %0, i64 8
  %20 = load ptr, ptr %19, align 8, !tbaa !8
  tail call void @X509_free(ptr noundef %20) #9
  br label %24

21:                                               ; preds = %2
  %22 = getelementptr inbounds nuw i8, ptr %0, i64 8
  %23 = load ptr, ptr %22, align 8, !tbaa !8
  tail call void @X509_CRL_free(ptr noundef %23) #9
  br label %24

24:                                               ; preds = %21, %18, %15, %12, %9, %4, %2
  tail call void @CRYPTO_free(ptr noundef nonnull %0, ptr noundef nonnull @.str.2, i32 noundef 847) #9
  br label %25

25:                                               ; preds = %24, %1
  ret void
}